; Function Attrs: mustprogress uwtable
define internal fastcc i32 @_ZN12_GLOBAL__N_112DftTagWorker4tagsEN5Yosys5RTLIL7SigSpecE(ptr noundef nonnull align 8 dereferenceable(1272) %0, ptr noundef %1) unnamed_addr #4 align 2 {
  %3 = load i32, ptr %1, align 8
  %.not18 = icmp eq i32 %3, 0
  br i1 %.not18, label %._crit_edge, label %.lr.ph

.lr.ph:                                           ; preds = %2
  %4 = getelementptr inbounds i8, ptr %1, i64 16
  %5 = getelementptr inbounds i8, ptr %1, i64 24
  %6 = getelementptr inbounds i8, ptr %1, i64 40
  %7 = getelementptr inbounds i8, ptr %1, i64 48
  %8 = zext i32 %3 to i64
  br label %9

9:                                                ; preds = %.lr.ph, %_ZNK5Yosys5RTLIL15SigSpecIteratordeEv.exit
  %indvars.iv = phi i64 [ 0, %.lr.ph ], [ %indvars.iv.next, %_ZNK5Yosys5RTLIL15SigSpecIteratordeEv.exit ]
  %.sroa.014.020 = phi i32 [ 0, %.lr.ph ], [ %23, %_ZNK5Yosys5RTLIL15SigSpecIteratordeEv.exit ]
  %10 = load ptr, ptr %4, align 8
  %11 = load ptr, ptr %5, align 8
  %12 = icmp eq ptr %10, %11
  br i1 %12, label %_ZNK5Yosys5RTLIL7SigSpec13inline_unpackEv.exit.i.i, label %13

13:                                               ; preds = %9
  tail call void @_ZNK5Yosys5RTLIL7SigSpec6unpackEv(ptr noundef nonnull align 8 dereferenceable(64) %1)
  br label %_ZNK5Yosys5RTLIL7SigSpec13inline_unpackEv.exit.i.i

_ZNK5Yosys5RTLIL7SigSpec13inline_unpackEv.exit.i.i: ; preds = %13, %9
  %14 = load ptr, ptr %7, align 8
  %15 = load ptr, ptr %6, align 8
  %16 = ptrtoint ptr %14 to i64
  %17 = ptrtoint ptr %15 to i64
  %18 = sub i64 %16, %17
  %19 = ashr exact i64 %18, 4
  %.not.i.i.i.i = icmp ugt i64 %19, %indvars.iv
  br i1 %.not.i.i.i.i, label %_ZNK5Yosys5RTLIL15SigSpecIteratordeEv.exit, label %20

20:                                               ; preds = %_ZNK5Yosys5RTLIL7SigSpec13inline_unpackEv.exit.i.i
  tail call void (ptr, ...) @_ZSt24__throw_out_of_range_fmtPKcz(ptr noundef nonnull @.str.25, i64 noundef %indvars.iv, i64 noundef %19) #23
  unreachable

_ZNK5Yosys5RTLIL15SigSpecIteratordeEv.exit:       ; preds = %_ZNK5Yosys5RTLIL7SigSpec13inline_unpackEv.exit.i.i
  %21 = getelementptr inbounds %"struct.Yosys::RTLIL::SigBit", ptr %15, i64 %indvars.iv
  %.sroa.04.0.copyload = load ptr, ptr %21, align 8
  %.sroa.25.0..sroa_idx = getelementptr inbounds i8, ptr %21, i64 8
  %.sroa.25.0.copyload = load i32, ptr %.sroa.25.0..sroa_idx, align 8
  %22 = tail call fastcc i32 @_ZN12_GLOBAL__N_112DftTagWorker4tagsEN5Yosys5RTLIL6SigBitE(ptr noundef nonnull align 8 dereferenceable(1272) %0, ptr %.sroa.04.0.copyload, i32 %.sroa.25.0.copyload)
  %23 = tail call fastcc i32 @_ZN12_GLOBAL__N_112DftTagWorker5mergeENS0_7tag_setES1_(ptr noundef nonnull align 8 dereferenceable(1272) %0, i32 %.sroa.014.020, i32 %22)
  %indvars.iv.next = add nuw nsw i64 %indvars.iv, 1
  %.not = icmp eq i64 %indvars.iv.next, %8
  br i1 %.not, label %._crit_edge, label %9

._crit_edge:                                      ; preds = %_ZNK5Yosys5RTLIL15SigSpecIteratordeEv.exit, %2
  %.sroa.014.0.lcssa = phi i32 [ 0, %2 ], [ %23, %_ZNK5Yosys5RTLIL15SigSpecIteratordeEv.exit ]
  ret i32 %.sroa.014.0.lcssa
}